target datalayout = "e-m:e-p270:32:32-p271:32:32-p272:64:64-i64:64-i128:128-f80:128-n8:16:32:64-S128"
target triple = "x86_64-pc-linux-gnu"

%"class.std::__cxx11::basic_string" = type { %"struct.std::__cxx11::basic_string<char>::_Alloc_hider", i64, %union.anon }
%"struct.std::__cxx11::basic_string<char>::_Alloc_hider" = type { ptr }
%union.anon = type { i64, [8 x i8] }

; Function Attrs: mustprogress nounwind uwtable
define available_externally noundef ptr @_ZNKSt7__cxx1112basic_stringIcSt11char_traitsIcESaIcEE7_M_dataEv(ptr noundef nonnull align 8 dereferenceable(32) %0) #7 align 2 {
  %2 = alloca ptr, align 8
  store ptr %0, ptr %2, align 8, !tbaa !11
  %3 = load ptr, ptr %2, align 8
  %4 = getelementptr inbounds nuw %"class.std::__cxx11::basic_string", ptr %3, i32 0, i32 0
  %5 = getelementptr inbounds nuw %"struct.std::__cxx11::basic_string<char>::_Alloc_hider", ptr %4, i32 0, i32 0
  %6 = load ptr, ptr %5, align 8, !tbaa !347
  ret ptr %6
}

; Function Attrs: mustprogress nounwind uwtable
define available_externally noundef nonnull align 1 dereferenceable(1) ptr @_ZNKSt7__cxx1112basic_stringIcSt11char_traitsIcESaIcEEixEm(ptr noundef nonnull align 8 dereferenceable(32) %0, i64 noundef %1) #7 align 2 {
  %3 = alloca ptr, align 8
  %4 = alloca i64, align 8
  store ptr %0, ptr %3, align 8, !tbaa !11
  store i64 %1, ptr %4, align 8, !tbaa !4
  %5 = load ptr, ptr %3, align 8
  br label %6

6:                                                ; preds = %2
  br label %7

7:                                                ; preds = %6
  br label %8

8:                                                ; preds = %7
  %9 = call noundef ptr @_ZNKSt7__cxx1112basic_stringIcSt11char_traitsIcESaIcEE7_M_dataEv(ptr noundef nonnull align 8 dereferenceable(32) %5)
  %10 = load i64, ptr %4, align 8, !tbaa !4
  %11 = getelementptr inbounds nuw i8, ptr %9, i64 %10
  ret ptr %11
}

; Function Attrs: mustprogress nounwind uwtable
define available_externally noundef i64 @_ZNKSt7__cxx1112basic_stringIcSt11char_traitsIcESaIcEE4sizeEv(ptr noundef nonnull align 8 dereferenceable(32) %0) #7 align 2 {
  %2 = alloca ptr, align 8
  store ptr %0, ptr %2, align 8, !tbaa !11
  %3 = load ptr, ptr %2, align 8
  %4 = getelementptr inbounds nuw %"class.std::__cxx11::basic_string", ptr %3, i32 0, i32 1
  %5 = load i64, ptr %4, align 8, !tbaa !19
  ret i64 %5
}

; Function Attrs: mustprogress nounwind uwtable
define hidden noundef zeroext i1 @_Z12isRepetitiveRKNSt7__cxx1112basic_stringIcSt11char_traitsIcESaIcEEE(ptr noundef nonnull align 8 dereferenceable(32) %0) #7 {
  %2 = alloca i1, align 1
  %3 = alloca ptr, align 8
  %4 = alloca i32, align 4
  %5 = alloca i32, align 4
  %6 = alloca i32, align 4
  store ptr %0, ptr %3, align 8, !tbaa !11
  call void @llvm.lifetime.start.p0(i64 4, ptr %4) #3
  store i32 0, ptr %4, align 4, !tbaa !37
  call void @llvm.lifetime.start.p0(i64 4, ptr %5) #3
  store i32 0, ptr %5, align 4, !tbaa !37
  br label %7

7:                                                ; preds = %42, %1
  %8 = load i32, ptr %5, align 4, !tbaa !37
  %9 = load ptr, ptr %3, align 8, !tbaa !11
  %10 = call noundef i64 @_ZNKSt7__cxx1112basic_stringIcSt11char_traitsIcESaIcEE4sizeEv(ptr noundef nonnull align 8 dereferenceable(32) %9) #3
  %11 = trunc i64 %10 to i32
  %12 = icmp slt i32 %8, %11
  br i1 %12, label %14, label %13

13:                                               ; preds = %7
  call void @llvm.lifetime.end.p0(i64 4, ptr %5) #3
  br label %45

14:                                               ; preds = %7
  %15 = load ptr, ptr %3, align 8, !tbaa !11
  %16 = load i32, ptr %5, align 4, !tbaa !37
  %17 = sext i32 %16 to i64
  %18 = call noundef nonnull align 1 dereferenceable(1) ptr @_ZNKSt7__cxx1112basic_stringIcSt11char_traitsIcESaIcEEixEm(ptr noundef nonnull align 8 dereferenceable(32) %15, i64 noundef %17) #3
  %19 = load i8, ptr %18, align 1, !tbaa !16
  %20 = sext i8 %19 to i32
  %21 = icmp eq i32 %20, 105
  br i1 %21, label %38, label %22

22:                                               ; preds = %14
  %23 = load ptr, ptr %3, align 8, !tbaa !11
  %24 = load i32, ptr %5, align 4, !tbaa !37
  %25 = sext i32 %24 to i64
  %26 = call noundef nonnull align 1 dereferenceable(1) ptr @_ZNKSt7__cxx1112basic_stringIcSt11char_traitsIcESaIcEEixEm(ptr noundef nonnull align 8 dereferenceable(32) %23, i64 noundef %25) #3
  %27 = load i8, ptr %26, align 1, !tbaa !16
  %28 = sext i8 %27 to i32
  %29 = icmp eq i32 %28, 108
  br i1 %29, label %38, label %30

30:                                               ; preds = %22
  %31 = load ptr, ptr %3, align 8, !tbaa !11
  %32 = load i32, ptr %5, align 4, !tbaa !37
  %33 = sext i32 %32 to i64
  %34 = call noundef nonnull align 1 dereferenceable(1) ptr @_ZNKSt7__cxx1112basic_stringIcSt11char_traitsIcESaIcEEixEm(ptr noundef nonnull align 8 dereferenceable(32) %31, i64 noundef %33) #3
  %35 = load i8, ptr %34, align 1, !tbaa !16
  %36 = sext i8 %35 to i32
  %37 = icmp eq i32 %36, 73
  br i1 %37, label %38, label %41

38:                                               ; preds = %30, %22, %14
  %39 = load i32, ptr %4, align 4, !tbaa !37
  %40 = add nsw i32 %39, 1
  store i32 %40, ptr %4, align 4, !tbaa !37
  br label %41

41:                                               ; preds = %38, %30
  br label %42

42:                                               ; preds = %41
  %43 = load i32, ptr %5, align 4, !tbaa !37
  %44 = add nsw i32 %43, 1
  store i32 %44, ptr %5, align 4, !tbaa !37
  br label %7, !llvm.loop !39

45:                                               ; preds = %13
  %46 = load i32, ptr %4, align 4, !tbaa !37
  %47 = load ptr, ptr %3, align 8, !tbaa !11
  %48 = call noundef i64 @_ZNKSt7__cxx1112basic_stringIcSt11char_traitsIcESaIcEE4sizeEv(ptr noundef nonnull align 8 dereferenceable(32) %47) #3
  %49 = trunc i64 %48 to i32
  %50 = add nsw i32 %49, 1
  %51 = sdiv i32 %50, 2
  %52 = icmp sgt i32 %46, %51
  br i1 %52, label %53, label %54

53:                                               ; preds = %45
  store i1 true, ptr %2, align 1
  store i32 1, ptr %6, align 4
  br label %55

54:                                               ; preds = %45
  store i1 false, ptr %2, align 1
  store i32 1, ptr %6, align 4
  br label %55

55:                                               ; preds = %54, %53
  call void @llvm.lifetime.end.p0(i64 4, ptr %4) #3
  %56 = load i1, ptr %2, align 1
  ret i1 %56
}